; Function Attrs: mustprogress nofree norecurse nounwind willreturn memory(readwrite, inaccessiblemem: none) uwtable
define void @_ZN9grpc_core8internal20StatusGetFromHeapPtrEm(ptr dead_on_unwind noalias writable writeonly sret(%"class.absl::lts_20240722::Status") align 8 captures(none) initializes((0, 8)) %0, i64 noundef %1) local_unnamed_addr #12 personality ptr @__gxx_personality_v0 {
  %3 = icmp eq i64 %1, 0
  br i1 %3, label %4, label %5

4:                                                ; preds = %2
  store i64 1, ptr %0, align 8, !tbaa !8, !alias.scope !184
  br label %_ZN4absl12lts_202407226StatusC2ERKS1_.exit

5:                                                ; preds = %2
  %6 = inttoptr i64 %1 to ptr
  %7 = load i64, ptr %6, align 8, !tbaa !8
  store i64 %7, ptr %0, align 8, !tbaa !8
  %8 = and i64 %7, 1
  %.not.i.i = icmp eq i64 %8, 0
  br i1 %.not.i.i, label %9, label %_ZN4absl12lts_202407226StatusC2ERKS1_.exit

9:                                                ; preds = %5
  %10 = inttoptr i64 %7 to ptr
  %11 = atomicrmw add ptr %10, i32 1 monotonic, align 4
  br label %_ZN4absl12lts_202407226StatusC2ERKS1_.exit

_ZN4absl12lts_202407226StatusC2ERKS1_.exit:       ; preds = %9, %5, %4
  ret void
}